target datalayout = "e-m:e-p270:32:32-p271:32:32-p272:64:64-i64:64-i128:128-f80:128-n8:16:32:64-S128"
target triple = "x86_64-pc-linux-gnu"

%struct.H5CX_node_t = type { %struct.H5CX_t, ptr }
%struct.H5CX_t = type { i64, ptr, i64, ptr, i64, ptr, i64, ptr, i64, ptr, i64, ptr, i64, i32, i64, i8, ptr, i8, ptr, i8, i32, i8, [3 x double], i8, i64, i8, i32, i8, %struct.H5Z_cb_t, i8, ptr, i8, %struct.H5T_vlen_alloc_info_t, i8, %struct.H5T_conv_cb_t, i8, i32, i8, i8, i8, i32, i8, i8, i32, i8, i8, i32, i8, i32, i8, i64, i8, i8, i8, i8, i8, ptr, i8, ptr, i8, i32, i8, i32, i8, %struct.H5VL_connector_prop_t, i8, ptr, i8 }
%struct.H5Z_cb_t = type { ptr, ptr }
%struct.H5T_vlen_alloc_info_t = type { ptr, ptr, ptr, ptr }
%struct.H5T_conv_cb_t = type { ptr, ptr }
%struct.H5VL_connector_prop_t = type { ptr, ptr }
%struct.H5VL_group_specific_args_t = type { i32, %union.anon.1 }
%union.anon.1 = type { %struct.H5VL_group_spec_mount_args_t }
%struct.H5VL_group_spec_mount_args_t = type { ptr, ptr, i64 }
%struct.anon.4 = type { i64 }

@H5_libinit_g = external global i8, align 1
@H5_libterm_g = external global i8, align 1
@.str = private unnamed_addr constant [97 x i8] c"generated/home/dtcxzyw/WorkSpace/Projects/compilers/llvm-opt-benchmark/bench/hdf5/hdf5/src/H5G.c\00", align 1
@H5E_FUNC_g = external global i64, align 8
@H5E_CANTINIT_g = external global i64, align 8
@.str.1 = private unnamed_addr constant [30 x i8] c"library initialization failed\00", align 1
@H5G_init_g = external global i8, align 1
@.str.2 = private unnamed_addr constant [32 x i8] c"interface initialization failed\00", align 1
@H5E_CANTSET_g = external global i64, align 8
@.str.3 = private unnamed_addr constant [22 x i8] c"can't set API context\00", align 1
@H5E_SYM_g = external global i64, align 8
@H5E_ARGS_g = external global i64, align 8
@H5E_BADTYPE_g = external global i64, align 8
@H5P_LST_DATASET_XFER_ID_g = external global i64, align 8
@.str.28 = private unnamed_addr constant [15 x i8] c"not a group ID\00", align 1
@.str.48 = private unnamed_addr constant [40 x i8] c"can't set collective metadata read info\00", align 1
@__func__.H5Grefresh = private unnamed_addr constant [11 x i8] c"H5Grefresh\00", align 1
@H5E_CANTLOAD_g = external global i64, align 8
@.str.50 = private unnamed_addr constant [24 x i8] c"unable to refresh group\00", align 1

; Function Attrs: nounwind uwtable
define i32 @H5Grefresh(i64 noundef %0) #0 {
  %2 = alloca i64, align 8
  %3 = alloca ptr, align 8
  %4 = alloca %struct.H5VL_group_specific_args_t, align 8
  %5 = alloca i32, align 4
  %6 = alloca %struct.H5CX_node_t, align 8
  %7 = alloca i8, align 1
  %8 = alloca i8, align 1
  store i64 %0, ptr %2, align 8, !tbaa !3
  call void @llvm.lifetime.start.p0(i64 8, ptr %3) #5
  call void @llvm.lifetime.start.p0(i64 32, ptr %4) #5
  call void @llvm.lifetime.start.p0(i64 4, ptr %5) #5
  store i32 0, ptr %5, align 4, !tbaa !20
  call void @llvm.lifetime.start.p0(i64 480, ptr %6) #5
  call void @llvm.memset.p0.i64(ptr align 8 %6, i8 0, i64 480, i1 false)
  call void @llvm.lifetime.start.p0(i64 1, ptr %7) #5
  store i8 0, ptr %7, align 1, !tbaa !10
  call void @llvm.lifetime.start.p0(i64 1, ptr %8) #5
  store i8 0, ptr %8, align 1, !tbaa !10
  br label %9

9:                                                ; preds = %1
  %10 = load i8, ptr @H5_libinit_g, align 1, !tbaa !10, !range !12, !noundef !13
  %11 = trunc i8 %10 to i1
  br i1 %11, label %16, label %12

12:                                               ; preds = %9
  %13 = load i8, ptr @H5_libterm_g, align 1, !tbaa !10, !range !12, !noundef !13
  %14 = trunc i8 %13 to i1
  %15 = xor i1 %14, true
  br label %16

16:                                               ; preds = %12, %9
  %17 = phi i1 [ false, %9 ], [ %15, %12 ]
  %18 = xor i1 %17, true
  %19 = xor i1 %18, true
  %20 = zext i1 %19 to i32
  %21 = sext i32 %20 to i64
  %22 = call i64 @llvm.expect.i64(i64 %21, i64 0)
  %23 = icmp ne i64 %22, 0
  br i1 %23, label %24, label %53

24:                                               ; preds = %16
  %25 = call i32 @H5_init_library()
  %26 = icmp slt i32 %25, 0
  %27 = xor i1 %26, true
  %28 = xor i1 %27, true
  %29 = zext i1 %28 to i32
  %30 = sext i32 %29 to i64
  %31 = call i64 @llvm.expect.i64(i64 %30, i64 0)
  %32 = icmp ne i64 %31, 0
  br i1 %32, label %33, label %52

33:                                               ; preds = %24
  br label %34

34:                                               ; preds = %33
  br label %35

35:                                               ; preds = %34
  br label %36

36:                                               ; preds = %35
  %37 = load i64, ptr @H5E_FUNC_g, align 8, !tbaa !3
  %38 = load i64, ptr @H5E_CANTINIT_g, align 8, !tbaa !3
  %39 = call i32 (ptr, ptr, i32, i64, i64, ptr, ...) @H5E_printf_stack(ptr noundef @.str, ptr noundef @__func__.H5Grefresh, i32 noundef 998, i64 noundef %37, i64 noundef %38, ptr noundef @.str.1)
  br label %40

40:                                               ; preds = %36
  br label %41

41:                                               ; preds = %40
  store i8 1, ptr %8, align 1, !tbaa !10
  %42 = load i8, ptr %8, align 1, !tbaa !10, !range !12, !noundef !13
  %43 = trunc i8 %42 to i1
  %44 = zext i1 %43 to i8
  store i8 %44, ptr %8, align 1, !tbaa !10
  br label %45

45:                                               ; preds = %41
  br label %46

46:                                               ; preds = %45
  br label %47

47:                                               ; preds = %46
  store i32 -1, ptr %5, align 4, !tbaa !20
  br label %201

48:                                               ; No predecessors!
  br label %49

49:                                               ; preds = %48
  br label %50

50:                                               ; preds = %49
  br label %51

51:                                               ; preds = %50
  br label %52

52:                                               ; preds = %51, %24
  br label %53

53:                                               ; preds = %52, %16
  %54 = load i8, ptr @H5G_init_g, align 1, !tbaa !10, !range !12, !noundef !13
  %55 = trunc i8 %54 to i1
  br i1 %55, label %60, label %56

56:                                               ; preds = %53
  %57 = load i8, ptr @H5_libterm_g, align 1, !tbaa !10, !range !12, !noundef !13
  %58 = trunc i8 %57 to i1
  %59 = xor i1 %58, true
  br label %60

60:                                               ; preds = %56, %53
  %61 = phi i1 [ false, %53 ], [ %59, %56 ]
  %62 = xor i1 %61, true
  %63 = xor i1 %62, true
  %64 = zext i1 %63 to i32
  %65 = sext i32 %64 to i64
  %66 = call i64 @llvm.expect.i64(i64 %65, i64 0)
  %67 = icmp ne i64 %66, 0
  br i1 %67, label %68, label %91

68:                                               ; preds = %60
  store i8 1, ptr @H5G_init_g, align 1, !tbaa !10
  %69 = call i32 @H5G__init_package()
  %70 = icmp slt i32 %69, 0
  br i1 %70, label %71, label %90

71:                                               ; preds = %68
  store i8 0, ptr @H5G_init_g, align 1, !tbaa !10
  br label %72

72:                                               ; preds = %71
  br label %73

73:                                               ; preds = %72
  br label %74

74:                                               ; preds = %73
  %75 = load i64, ptr @H5E_FUNC_g, align 8, !tbaa !3
  %76 = load i64, ptr @H5E_CANTINIT_g, align 8, !tbaa !3
  %77 = call i32 (ptr, ptr, i32, i64, i64, ptr, ...) @H5E_printf_stack(ptr noundef @.str, ptr noundef @__func__.H5Grefresh, i32 noundef 998, i64 noundef %75, i64 noundef %76, ptr noundef @.str.2)
  br label %78

78:                                               ; preds = %74
  br label %79

79:                                               ; preds = %78
  store i8 1, ptr %8, align 1, !tbaa !10
  %80 = load i8, ptr %8, align 1, !tbaa !10, !range !12, !noundef !13
  %81 = trunc i8 %80 to i1
  %82 = zext i1 %81 to i8
  store i8 %82, ptr %8, align 1, !tbaa !10
  br label %83

83:                                               ; preds = %79
  br label %84

84:                                               ; preds = %83
  br label %85

85:                                               ; preds = %84
  store i32 -1, ptr %5, align 4, !tbaa !20
  br label %201

86:                                               ; No predecessors!
  br label %87

87:                                               ; preds = %86
  br label %88

88:                                               ; preds = %87
  br label %89

89:                                               ; preds = %88
  br label %90

90:                                               ; preds = %89, %68
  br label %91

91:                                               ; preds = %90, %60
  br label %92

92:                                               ; preds = %91
  br label %93

93:                                               ; preds = %92
  br label %94

94:                                               ; preds = %93
  %95 = call i32 @H5CX_push(ptr noundef %6)
  %96 = icmp slt i32 %95, 0
  %97 = xor i1 %96, true
  %98 = xor i1 %97, true
  %99 = zext i1 %98 to i32
  %100 = sext i32 %99 to i64
  %101 = call i64 @llvm.expect.i64(i64 %100, i64 0)
  %102 = icmp ne i64 %101, 0
  br i1 %102, label %103, label %122

103:                                              ; preds = %94
  br label %104

104:                                              ; preds = %103
  br label %105

105:                                              ; preds = %104
  br label %106

106:                                              ; preds = %105
  %107 = load i64, ptr @H5E_FUNC_g, align 8, !tbaa !3
  %108 = load i64, ptr @H5E_CANTSET_g, align 8, !tbaa !3
  %109 = call i32 (ptr, ptr, i32, i64, i64, ptr, ...) @H5E_printf_stack(ptr noundef @.str, ptr noundef @__func__.H5Grefresh, i32 noundef 998, i64 noundef %107, i64 noundef %108, ptr noundef @.str.3)
  br label %110

110:                                              ; preds = %106
  br label %111

111:                                              ; preds = %110
  store i8 1, ptr %8, align 1, !tbaa !10
  %112 = load i8, ptr %8, align 1, !tbaa !10, !range !12, !noundef !13
  %113 = trunc i8 %112 to i1
  %114 = zext i1 %113 to i8
  store i8 %114, ptr %8, align 1, !tbaa !10
  br label %115

115:                                              ; preds = %111
  br label %116

116:                                              ; preds = %115
  br label %117

117:                                              ; preds = %116
  store i32 -1, ptr %5, align 4, !tbaa !20
  br label %201

118:                                              ; No predecessors!
  br label %119

119:                                              ; preds = %118
  br label %120

120:                                              ; preds = %119
  br label %121

121:                                              ; preds = %120
  br label %123

122:                                              ; preds = %94
  store i8 1, ptr %7, align 1, !tbaa !10
  br label %123

123:                                              ; preds = %122, %121
  br label %124

124:                                              ; preds = %123
  br label %125

125:                                              ; preds = %124
  %126 = call i32 @H5E_clear_stack()
  %127 = load i64, ptr %2, align 8, !tbaa !3
  %128 = call ptr @H5VL_vol_object_verify(i64 noundef %127, i32 noundef 2)
  store ptr %128, ptr %3, align 8, !tbaa !17
  %129 = icmp eq ptr null, %128
  br i1 %129, label %130, label %149

130:                                              ; preds = %125
  br label %131

131:                                              ; preds = %130
  br label %132

132:                                              ; preds = %131
  br label %133

133:                                              ; preds = %132
  %134 = load i64, ptr @H5E_ARGS_g, align 8, !tbaa !3
  %135 = load i64, ptr @H5E_BADTYPE_g, align 8, !tbaa !3
  %136 = call i32 (ptr, ptr, i32, i64, i64, ptr, ...) @H5E_printf_stack(ptr noundef @.str, ptr noundef @__func__.H5Grefresh, i32 noundef 1002, i64 noundef %134, i64 noundef %135, ptr noundef @.str.28)
  br label %137

137:                                              ; preds = %133
  br label %138

138:                                              ; preds = %137
  store i8 1, ptr %8, align 1, !tbaa !10
  %139 = load i8, ptr %8, align 1, !tbaa !10, !range !12, !noundef !13
  %140 = trunc i8 %139 to i1
  %141 = zext i1 %140 to i8
  store i8 %141, ptr %8, align 1, !tbaa !10
  br label %142

142:                                              ; preds = %138
  br label %143

143:                                              ; preds = %142
  br label %144

144:                                              ; preds = %143
  store i32 -1, ptr %5, align 4, !tbaa !20
  br label %201

145:                                              ; No predecessors!
  br label %146

146:                                              ; preds = %145
  br label %147

147:                                              ; preds = %146
  br label %148

148:                                              ; preds = %147
  br label %149

149:                                              ; preds = %148, %125
  %150 = load i64, ptr %2, align 8, !tbaa !3
  %151 = call i32 @H5CX_set_loc(i64 noundef %150)
  %152 = icmp slt i32 %151, 0
  br i1 %152, label %153, label %172

153:                                              ; preds = %149
  br label %154

154:                                              ; preds = %153
  br label %155

155:                                              ; preds = %154
  br label %156

156:                                              ; preds = %155
  %157 = load i64, ptr @H5E_SYM_g, align 8, !tbaa !3
  %158 = load i64, ptr @H5E_CANTSET_g, align 8, !tbaa !3
  %159 = call i32 (ptr, ptr, i32, i64, i64, ptr, ...) @H5E_printf_stack(ptr noundef @.str, ptr noundef @__func__.H5Grefresh, i32 noundef 1006, i64 noundef %157, i64 noundef %158, ptr noundef @.str.48)
  br label %160

160:                                              ; preds = %156
  br label %161

161:                                              ; preds = %160
  store i8 1, ptr %8, align 1, !tbaa !10
  %162 = load i8, ptr %8, align 1, !tbaa !10, !range !12, !noundef !13
  %163 = trunc i8 %162 to i1
  %164 = zext i1 %163 to i8
  store i8 %164, ptr %8, align 1, !tbaa !10
  br label %165

165:                                              ; preds = %161
  br label %166

166:                                              ; preds = %165
  br label %167

167:                                              ; preds = %166
  store i32 -1, ptr %5, align 4, !tbaa !20
  br label %201

168:                                              ; No predecessors!
  br label %169

169:                                              ; preds = %168
  br label %170

170:                                              ; preds = %169
  br label %171

171:                                              ; preds = %170
  br label %172

172:                                              ; preds = %171, %149
  %173 = getelementptr inbounds nuw %struct.H5VL_group_specific_args_t, ptr %4, i32 0, i32 0
  store i32 3, ptr %173, align 8, !tbaa !31
  %174 = load i64, ptr %2, align 8, !tbaa !3
  %175 = getelementptr inbounds nuw %struct.H5VL_group_specific_args_t, ptr %4, i32 0, i32 1
  %176 = getelementptr inbounds nuw %struct.anon.4, ptr %175, i32 0, i32 0
  store i64 %174, ptr %176, align 8, !tbaa !19
  %177 = load ptr, ptr %3, align 8, !tbaa !17
  %178 = load i64, ptr @H5P_LST_DATASET_XFER_ID_g, align 8, !tbaa !3
  %179 = call i32 @H5VL_group_specific(ptr noundef %177, ptr noundef %4, i64 noundef %178, ptr noundef null)
  %180 = icmp slt i32 %179, 0
  br i1 %180, label %181, label %200

181:                                              ; preds = %172
  br label %182

182:                                              ; preds = %181
  br label %183

183:                                              ; preds = %182
  br label %184

184:                                              ; preds = %183
  %185 = load i64, ptr @H5E_SYM_g, align 8, !tbaa !3
  %186 = load i64, ptr @H5E_CANTLOAD_g, align 8, !tbaa !3
  %187 = call i32 (ptr, ptr, i32, i64, i64, ptr, ...) @H5E_printf_stack(ptr noundef @.str, ptr noundef @__func__.H5Grefresh, i32 noundef 1014, i64 noundef %185, i64 noundef %186, ptr noundef @.str.50)
  br label %188

188:                                              ; preds = %184
  br label %189

189:                                              ; preds = %188
  store i8 1, ptr %8, align 1, !tbaa !10
  %190 = load i8, ptr %8, align 1, !tbaa !10, !range !12, !noundef !13
  %191 = trunc i8 %190 to i1
  %192 = zext i1 %191 to i8
  store i8 %192, ptr %8, align 1, !tbaa !10
  br label %193

193:                                              ; preds = %189
  br label %194

194:                                              ; preds = %193
  br label %195

195:                                              ; preds = %194
  store i32 -1, ptr %5, align 4, !tbaa !20
  br label %201

196:                                              ; No predecessors!
  br label %197

197:                                              ; preds = %196
  br label %198

198:                                              ; preds = %197
  br label %199

199:                                              ; preds = %198
  br label %200

200:                                              ; preds = %199, %172
  br label %201

201:                                              ; preds = %200, %195, %167, %144, %117, %85, %47
  %202 = load i8, ptr %7, align 1, !tbaa !10, !range !12, !noundef !13
  %203 = trunc i8 %202 to i1
  %204 = xor i1 %203, true
  %205 = xor i1 %204, true
  %206 = zext i1 %205 to i32
  %207 = sext i32 %206 to i64
  %208 = call i64 @llvm.expect.i64(i64 %207, i64 1)
  %209 = icmp ne i64 %208, 0
  br i1 %209, label %210, label %212

210:                                              ; preds = %201
  %211 = call i32 @H5CX_pop(i1 noundef zeroext true)
  store i8 0, ptr %7, align 1, !tbaa !10
  br label %212

212:                                              ; preds = %210, %201
  %213 = load i8, ptr %8, align 1, !tbaa !10, !range !12, !noundef !13
  %214 = trunc i8 %213 to i1
  %215 = xor i1 %214, true
  %216 = xor i1 %215, true
  %217 = zext i1 %216 to i32
  %218 = sext i32 %217 to i64
  %219 = call i64 @llvm.expect.i64(i64 %218, i64 0)
  %220 = icmp ne i64 %219, 0
  br i1 %220, label %221, label %223

221:                                              ; preds = %212
  %222 = call i32 @H5E_dump_api_stack()
  br label %223

223:                                              ; preds = %221, %212
  %224 = load i32, ptr %5, align 4, !tbaa !20
  call void @llvm.lifetime.end.p0(i64 1, ptr %8) #5
  call void @llvm.lifetime.end.p0(i64 1, ptr %7) #5
  call void @llvm.lifetime.end.p0(i64 480, ptr %6) #5
  call void @llvm.lifetime.end.p0(i64 4, ptr %5) #5
  call void @llvm.lifetime.end.p0(i64 32, ptr %4) #5
  call void @llvm.lifetime.end.p0(i64 8, ptr %3) #5
  ret i32 %224
}